ARM GAS  C:\Users\swaga\AppData\Local\Temp\ccBhaj7J.s 			page 1


   1              		.syntax unified
   2              		.cpu cortex-m3
   3              		.fpu softvfp
   4              		.eabi_attribute 20, 1
   5              		.eabi_attribute 21, 1
   6              		.eabi_attribute 23, 3
   7              		.eabi_attribute 24, 1
   8              		.eabi_attribute 25, 1
   9              		.eabi_attribute 26, 1
  10              		.eabi_attribute 30, 1
  11              		.eabi_attribute 34, 1
  12              		.eabi_attribute 18, 4
  13              		.thumb
  14              		.syntax unified
  15              		.file	"main.c"
  16              		.text
  17              	.Ltext0:
  18              		.cfi_sections	.debug_frame
  19              		.section	.text.ISR_UART_Rx,"ax",%progbits
  20              		.align	2
  21              		.global	ISR_UART_Rx
  22              		.thumb
  23              		.thumb_func
  24              		.type	ISR_UART_Rx, %function
  25              	ISR_UART_Rx:
  26              	.LFB64:
  27              		.file 1 "main.c"
   1:main.c        **** #include "project.h"
   2:main.c        **** #include<stdio.h>
   3:main.c        **** # define vdda 5.0
   4:main.c        **** # define ADC_COUNT 65536  // 16 bit ADC
   5:main.c        **** # define TX_BUFF_SIZE 1024 // 1024 * (uint16) data to be transfered
   6:main.c        **** # define RX_BUFF_SIZE 1
   7:main.c        **** # define ADC_BUFF_SIZE 1024 
   8:main.c        **** /* Defines for DMA_ADC */
   9:main.c        **** #define DMA_ADC_BYTES_PER_BURST 2   //no of bytes to transfer per request
  10:main.c        **** #define DMA_ADC_REQUEST_PER_BURST 1 // request per burst 1- auto  0- manual
  11:main.c        **** #define DMA_ADC_SRC_BASE (CYDEV_PERIPH_BASE)  // source address
  12:main.c        **** #define DMA_ADC_DST_BASE (CYDEV_SRAM_BASE)    // destination address
  13:main.c        **** 
  14:main.c        **** //char rx_buffer[RX_BUFF_SIZE];          
  15:main.c        **** uint8_t rx_buffer_flag = 0;
  16:main.c        **** uint8_t dma_xfer_done_flag = 0;
  17:main.c        **** uint16 tx_buffer[TX_BUFF_SIZE];
  18:main.c        **** uint16 ADC_buffer[ADC_BUFF_SIZE];//DMA destination
  19:main.c        **** 
  20:main.c        **** 
  21:main.c        **** 
  22:main.c        **** /* Variable declarations for DMA_ADC */
  23:main.c        **** /* Move these variable declarations to the top of the function */
  24:main.c        **** uint8 DMA_ADC_Chan;
  25:main.c        **** uint8 DMA_ADC_TD[1];
  26:main.c        **** 
  27:main.c        **** 
  28:main.c        **** // Interrupt function to be activcated ever time a Byte is received
  29:main.c        **** void ISR_UART_Rx(void){
  28              		.loc 1 29 0
ARM GAS  C:\Users\swaga\AppData\Local\Temp\ccBhaj7J.s 			page 2


  29              		.cfi_startproc
  30              		@ args = 0, pretend = 0, frame = 0
  31              		@ frame_needed = 0, uses_anonymous_args = 0
  32              		@ link register save eliminated.
  30:main.c        ****     //rx_buffer = UART_GetByte();
  31:main.c        ****     rx_buffer_flag = 1;
  33              		.loc 1 31 0
  34 0000 0122     		movs	r2, #1
  35 0002 014B     		ldr	r3, .L2
  36 0004 1A70     		strb	r2, [r3]
  37 0006 7047     		bx	lr
  38              	.L3:
  39              		.align	2
  40              	.L2:
  41 0008 00000000 		.word	.LANCHOR0
  42              		.cfi_endproc
  43              	.LFE64:
  44              		.size	ISR_UART_Rx, .-ISR_UART_Rx
  45              		.section	.text.ISR_DMA_XFER_DONE,"ax",%progbits
  46              		.align	2
  47              		.global	ISR_DMA_XFER_DONE
  48              		.thumb
  49              		.thumb_func
  50              		.type	ISR_DMA_XFER_DONE, %function
  51              	ISR_DMA_XFER_DONE:
  52              	.LFB65:
  32:main.c        ****     
  33:main.c        ****     }
  34:main.c        **** // Interrupt function to be activcated when DMA transfer is complete
  35:main.c        **** void ISR_DMA_XFER_DONE(void){
  53              		.loc 1 35 0
  54              		.cfi_startproc
  55              		@ args = 0, pretend = 0, frame = 0
  56              		@ frame_needed = 0, uses_anonymous_args = 0
  57              		@ link register save eliminated.
  36:main.c        ****     dma_xfer_done_flag = 1;
  58              		.loc 1 36 0
  59 0000 0122     		movs	r2, #1
  60 0002 014B     		ldr	r3, .L5
  61 0004 5A70     		strb	r2, [r3, #1]
  62 0006 7047     		bx	lr
  63              	.L6:
  64              		.align	2
  65              	.L5:
  66 0008 00000000 		.word	.LANCHOR0
  67              		.cfi_endproc
  68              	.LFE65:
  69              		.size	ISR_DMA_XFER_DONE, .-ISR_DMA_XFER_DONE
  70              		.section	.text.main,"ax",%progbits
  71              		.align	2
  72              		.global	main
  73              		.thumb
  74              		.thumb_func
  75              		.type	main, %function
  76              	main:
  77              	.LFB66:
  37:main.c        **** };
ARM GAS  C:\Users\swaga\AppData\Local\Temp\ccBhaj7J.s 			page 3


  38:main.c        **** int main(void)
  39:main.c        **** {
  78              		.loc 1 39 0
  79              		.cfi_startproc
  80              		@ args = 0, pretend = 0, frame = 0
  81              		@ frame_needed = 0, uses_anonymous_args = 0
  82 0000 38B5     		push	{r3, r4, r5, lr}
  83              		.cfi_def_cfa_offset 16
  84              		.cfi_offset 3, -16
  85              		.cfi_offset 4, -12
  86              		.cfi_offset 5, -8
  87              		.cfi_offset 14, -4
  40:main.c        ****     CyGlobalIntEnable; /* Enable global interrupts. */
  88              		.loc 1 40 0
  89              		.syntax unified
  90              	@ 40 "main.c" 1
  91 0002 62B6     		CPSIE   i
  92              	@ 0 "" 2
  41:main.c        ****     UART_Start();
  93              		.loc 1 41 0
  94              		.thumb
  95              		.syntax unified
  96 0004 FFF7FEFF 		bl	UART_Start
  97              	.LVL0:
  42:main.c        ****     WaveDAC_Start();
  98              		.loc 1 42 0
  99 0008 FFF7FEFF 		bl	WaveDAC_Start
 100              	.LVL1:
  43:main.c        ****     ADC_Start();
 101              		.loc 1 43 0
 102 000c FFF7FEFF 		bl	ADC_Start
 103              	.LVL2:
  44:main.c        ****     ADC_StartConvert();
 104              		.loc 1 44 0
 105 0010 FFF7FEFF 		bl	ADC_StartConvert
 106              	.LVL3:
  45:main.c        ****     uint16 adc_result;
  46:main.c        ****     float adc_to_vg;
  47:main.c        ****     uint8 adc_to_tx_buf_flag = 0;
  48:main.c        ****     
  49:main.c        ****     // Interrupt function to be activcated ever time a Byte is received
  50:main.c        ****     ISR_UART_Rx_StartEx(ISR_UART_Rx);
 107              		.loc 1 50 0
 108 0014 2F48     		ldr	r0, .L15
 109 0016 FFF7FEFF 		bl	ISR_UART_Rx_StartEx
 110              	.LVL4:
  51:main.c        ****     ISR_DMA_XFER_DONE_StartEx(ISR_DMA_XFER_DONE);
 111              		.loc 1 51 0
 112 001a 2F48     		ldr	r0, .L15+4
 113 001c FFF7FEFF 		bl	ISR_DMA_XFER_DONE_StartEx
 114              	.LVL5:
  52:main.c        ****     
  53:main.c        ****     /* DMA Configuration for DMA_ADC */
  54:main.c        ****     DMA_ADC_Chan = DMA_ADC_DmaInitialize(DMA_ADC_BYTES_PER_BURST, 
 115              		.loc 1 54 0
 116 0020 41F6FF73 		movw	r3, #8191
 117 0024 4FF48042 		mov	r2, #16384
ARM GAS  C:\Users\swaga\AppData\Local\Temp\ccBhaj7J.s 			page 4


 118 0028 0121     		movs	r1, #1
 119 002a 0220     		movs	r0, #2
 120 002c FFF7FEFF 		bl	DMA_ADC_DmaInitialize
 121              	.LVL6:
 122 0030 2A4C     		ldr	r4, .L15+8
 123 0032 2070     		strb	r0, [r4]
  55:main.c        ****                                          DMA_ADC_REQUEST_PER_BURST, 
  56:main.c        ****                                          HI16(DMA_ADC_SRC_BASE),  // upper source address
  57:main.c        ****                                          HI16(DMA_ADC_DST_BASE)   //upper destination address
  58:main.c        ****     );
  59:main.c        ****     DMA_ADC_TD[0] = CyDmaTdAllocate();
 124              		.loc 1 59 0
 125 0034 FFF7FEFF 		bl	CyDmaTdAllocate
 126              	.LVL7:
 127 0038 294D     		ldr	r5, .L15+12
 128 003a 2870     		strb	r0, [r5]
  60:main.c        ****     CyDmaTdSetConfiguration(DMA_ADC_TD[0],          // current transport descriptor 
 129              		.loc 1 60 0
 130 003c 0623     		movs	r3, #6
 131 003e FE22     		movs	r2, #254
 132 0040 4FF40061 		mov	r1, #2048
 133 0044 FFF7FEFF 		bl	CyDmaTdSetConfiguration
 134              	.LVL8:
  61:main.c        ****                                       2048,          // total no of bytes
  62:main.c        ****                             CY_DMA_DISABLE_TD,      // terminates channel after TD finishes 
  63:main.c        ****                             DMA_ADC__TD_TERMOUT_EN  // DMA complition event pulse eneble
  64:main.c        ****                             | CY_DMA_TD_INC_DST_ADR // increament destination address after each bu
  65:main.c        ****     ); 
  66:main.c        ****     CyDmaTdSetAddress(DMA_ADC_TD[0],
 135              		.loc 1 66 0
 136 0048 264A     		ldr	r2, .L15+16
 137 004a 92B2     		uxth	r2, r2
 138 004c 44F61061 		movw	r1, #19984
 139 0050 2878     		ldrb	r0, [r5]	@ zero_extendqisi2
 140 0052 FFF7FEFF 		bl	CyDmaTdSetAddress
 141              	.LVL9:
  67:main.c        ****                       LO16((uint32)ADC_DEC_SAMP_PTR), // lower source address
  68:main.c        ****                       LO16((uint32)ADC_buffer)        // lower destination address
  69:main.c        ****     );
  70:main.c        ****     CyDmaChSetInitialTd(DMA_ADC_Chan, // DMA module handler
 142              		.loc 1 70 0
 143 0056 2978     		ldrb	r1, [r5]	@ zero_extendqisi2
 144 0058 2078     		ldrb	r0, [r4]	@ zero_extendqisi2
 145 005a FFF7FEFF 		bl	CyDmaChSetInitialTd
 146              	.LVL10:
  71:main.c        ****                         DMA_ADC_TD[0] // current transport descriptor 
  72:main.c        ****     );
  73:main.c        ****     /*Enables the DMA*/
  74:main.c        ****     CyDmaChEnable(DMA_ADC_Chan,      // DMA module handler
 147              		.loc 1 74 0
 148 005e 0121     		movs	r1, #1
 149 0060 2078     		ldrb	r0, [r4]	@ zero_extendqisi2
 150 0062 FFF7FEFF 		bl	CyDmaChEnable
 151              	.LVL11:
  47:main.c        ****     
 152              		.loc 1 47 0
 153 0066 0024     		movs	r4, #0
ARM GAS  C:\Users\swaga\AppData\Local\Temp\ccBhaj7J.s 			page 5


 154              	.LVL12:
 155              	.L12:
  75:main.c        ****                              1       // restore TD config after the end of the TD
  76:main.c        ****     );
  77:main.c        ****     
  78:main.c        ****     
  79:main.c        ****     for(;;)
  80:main.c        ****        { 
  81:main.c        ****         /* transmit the data only when requested from outside 
  82:main.c        ****         (i.e. rx_buffer_flag is high) and data loaded to tx buffer 
  83:main.c        ****         (i.e adc_to_tx_buf_flag is high) */
  84:main.c        ****         
  85:main.c        ****         if((rx_buffer_flag ==1)&& (adc_to_tx_buf_flag ==1)){
 156              		.loc 1 85 0
 157 0068 1F4B     		ldr	r3, .L15+20
 158 006a 1B78     		ldrb	r3, [r3]	@ zero_extendqisi2
 159 006c 012B     		cmp	r3, #1
 160 006e 0DD1     		bne	.L8
 161              		.loc 1 85 0 is_stmt 0 discriminator 1
 162 0070 64B1     		cbz	r4, .L8
  86:main.c        ****   
  87:main.c        ****                 UART_PutArray(tx_buffer,TX_BUFF_SIZE * sizeof(uint16_t));//<-----------------------
 163              		.loc 1 87 0 is_stmt 1
 164 0072 4FF40061 		mov	r1, #2048
 165 0076 1D48     		ldr	r0, .L15+24
 166 0078 FFF7FEFF 		bl	UART_PutArray
 167              	.LVL13:
  88:main.c        ****                 adc_to_tx_buf_flag = 0;
  89:main.c        ****                 rx_buffer_flag = 0;
 168              		.loc 1 89 0
 169 007c 0024     		movs	r4, #0
 170 007e 1A4B     		ldr	r3, .L15+20
 171 0080 1C70     		strb	r4, [r3]
  90:main.c        ****                 /*Enables the DMA*/
  91:main.c        ****                   CyDmaChEnable(DMA_ADC_Chan, // DMA module handler
 172              		.loc 1 91 0
 173 0082 0121     		movs	r1, #1
 174 0084 154B     		ldr	r3, .L15+8
 175 0086 1878     		ldrb	r0, [r3]	@ zero_extendqisi2
 176 0088 FFF7FEFF 		bl	CyDmaChEnable
 177              	.LVL14:
 178              	.L8:
  92:main.c        ****                   1             // restore TD config after the end of the TD
  93:main.c        ****                   );
  94:main.c        ****             }
  95:main.c        ****         
  96:main.c        ****        
  97:main.c        ****         /* load ADC readings to tx buffer when requested from 
  98:main.c        ****         outside (i.e. rx_buffer_flag is high) and DMA transfer
  99:main.c        ****         is complete*/
 100:main.c        ****        
 101:main.c        ****         if ((rx_buffer_flag ==1) && (dma_xfer_done_flag == 1)){
 179              		.loc 1 101 0
 180 008c 164B     		ldr	r3, .L15+20
 181 008e 1B78     		ldrb	r3, [r3]	@ zero_extendqisi2
 182 0090 012B     		cmp	r3, #1
 183 0092 14D1     		bne	.L9
ARM GAS  C:\Users\swaga\AppData\Local\Temp\ccBhaj7J.s 			page 6


 184              		.loc 1 101 0 is_stmt 0 discriminator 1
 185 0094 144B     		ldr	r3, .L15+20
 186 0096 5B78     		ldrb	r3, [r3, #1]	@ zero_extendqisi2
 187 0098 012B     		cmp	r3, #1
 188 009a 10D1     		bne	.L9
 189 009c 07E0     		b	.L13
 190              	.LVL15:
 191              	.L11:
 192              	.LBB2:
 102:main.c        ****            for (int i =0; i<ADC_BUFF_SIZE ; i++){
 103:main.c        ****               tx_buffer[i] = ADC_buffer[i]; 
 193              		.loc 1 103 0 is_stmt 1 discriminator 3
 194 009e 114A     		ldr	r2, .L15+16
 195 00a0 32F81310 		ldrh	r1, [r2, r3, lsl #1]
 196 00a4 114A     		ldr	r2, .L15+24
 197 00a6 22F81310 		strh	r1, [r2, r3, lsl #1]	@ movhi
 102:main.c        ****            for (int i =0; i<ADC_BUFF_SIZE ; i++){
 198              		.loc 1 102 0 discriminator 3
 199 00aa 0133     		adds	r3, r3, #1
 200              	.LVL16:
 201 00ac 00E0     		b	.L10
 202              	.LVL17:
 203              	.L13:
 204              	.LBE2:
 205 00ae 0023     		movs	r3, #0
 206              	.L10:
 207              	.LVL18:
 208              	.LBB3:
 102:main.c        ****            for (int i =0; i<ADC_BUFF_SIZE ; i++){
 209              		.loc 1 102 0 is_stmt 0 discriminator 1
 210 00b0 B3F5806F 		cmp	r3, #1024
 211 00b4 F3DB     		blt	.L11
 212              	.LVL19:
 213              	.LBE3:
 104:main.c        ****            }
 105:main.c        ****            adc_to_tx_buf_flag = 1;
 106:main.c        ****            dma_xfer_done_flag =0;
 214              		.loc 1 106 0 is_stmt 1
 215 00b6 0022     		movs	r2, #0
 216 00b8 0B4B     		ldr	r3, .L15+20
 217              	.LVL20:
 218 00ba 5A70     		strb	r2, [r3, #1]
 105:main.c        ****            dma_xfer_done_flag =0;
 219              		.loc 1 105 0
 220 00bc 0124     		movs	r4, #1
 221              	.LVL21:
 222              	.L9:
 107:main.c        ****         }
 108:main.c        ****       
 109:main.c        ****         // default operation ( read ADC data and light the appropriate LED)
 110:main.c        ****         ADC_StartConvert();
 223              		.loc 1 110 0
 224 00be FFF7FEFF 		bl	ADC_StartConvert
 225              	.LVL22:
 111:main.c        ****         ADC_IsEndConversion(ADC_WAIT_FOR_RESULT);
 226              		.loc 1 111 0
 227 00c2 0020     		movs	r0, #0
ARM GAS  C:\Users\swaga\AppData\Local\Temp\ccBhaj7J.s 			page 7


 228 00c4 FFF7FEFF 		bl	ADC_IsEndConversion
 229              	.LVL23:
 112:main.c        ****         adc_result = ADC_GetResult32();
 230              		.loc 1 112 0
 231 00c8 FFF7FEFF 		bl	ADC_GetResult32
 232              	.LVL24:
 113:main.c        ****         adc_to_vg = (vdda/ADC_COUNT) * adc_result ;
 114:main.c        ****     
 115:main.c        ****         CyDelay(1);
 233              		.loc 1 115 0
 234 00cc 0120     		movs	r0, #1
 235 00ce FFF7FEFF 		bl	CyDelay
 236              	.LVL25:
 116:main.c        ****        }
 237              		.loc 1 116 0
 238 00d2 C9E7     		b	.L12
 239              	.L16:
 240              		.align	2
 241              	.L15:
 242 00d4 00000000 		.word	ISR_UART_Rx
 243 00d8 00000000 		.word	ISR_DMA_XFER_DONE
 244 00dc 00000000 		.word	DMA_ADC_Chan
 245 00e0 00000000 		.word	DMA_ADC_TD
 246 00e4 00000000 		.word	ADC_buffer
 247 00e8 00000000 		.word	.LANCHOR0
 248 00ec 00000000 		.word	tx_buffer
 249              		.cfi_endproc
 250              	.LFE66:
 251              		.size	main, .-main
 252              		.comm	DMA_ADC_TD,1,4
 253              		.comm	DMA_ADC_Chan,1,1
 254              		.comm	ADC_buffer,2048,4
 255              		.comm	tx_buffer,2048,4
 256              		.global	dma_xfer_done_flag
 257              		.global	rx_buffer_flag
 258              		.bss
 259              		.set	.LANCHOR0,. + 0
 260              		.type	rx_buffer_flag, %object
 261              		.size	rx_buffer_flag, 1
 262              	rx_buffer_flag:
 263 0000 00       		.space	1
 264              		.type	dma_xfer_done_flag, %object
 265              		.size	dma_xfer_done_flag, 1
 266              	dma_xfer_done_flag:
 267 0001 00       		.space	1
 268              		.text
 269              	.Letext0:
 270              		.file 2 "c:\\program files (x86)\\cypress\\psoc creator\\4.2\\psoc creator\\import\\gnu\\arm\\5.4.
 271              		.file 3 "c:\\program files (x86)\\cypress\\psoc creator\\4.2\\psoc creator\\import\\gnu\\arm\\5.4.
 272              		.file 4 "Generated_Source\\PSoC5/cytypes.h"
 273              		.file 5 "Generated_Source\\PSoC5/core_cm3.h"
 274              		.file 6 "Generated_Source\\PSoC5/UART.h"
 275              		.file 7 "Generated_Source\\PSoC5/WaveDAC.h"
 276              		.file 8 "Generated_Source\\PSoC5/ADC.h"
 277              		.file 9 "Generated_Source\\PSoC5/ISR_UART_Rx.h"
 278              		.file 10 "Generated_Source\\PSoC5/ISR_DMA_XFER_DONE.h"
 279              		.file 11 "Generated_Source\\PSoC5/DMA_ADC_dma.h"
ARM GAS  C:\Users\swaga\AppData\Local\Temp\ccBhaj7J.s 			page 8


 280              		.file 12 "Generated_Source\\PSoC5/CYDMAC.H"
 281              		.file 13 "Generated_Source\\PSoC5/CyLib.h"